(dp0
S'123451'
p1
(lp2
(lp3
S'SteveXu'
p4
aI95
aS'2020/01/01'
p5
aasS'123452'
p6
(lp7
(lp8
S'AndyLin'
p9
aI94
aS'2020/01/01'
p10
aasS'123459'
p11
(lp12
(lp13
S'RickLiu'
p14
aI98
aS'2020/01/01'
p15
aasS'123457'
p16
(lp17
(lp18
S'JasonGuo'
p19
aI99
aS'2020/01/01'
p20
aasS'123458'
p21
(lp22
(lp23
S'ArthurDeng'
p24
aI98
aS'2020/01/01'
p25
aasS'123456'
p26
(lp27
(lp28
S'JimYang'
p29
aI100
aS'2020/01/01'
p30
aas.